Certificate:
    Data:
        Version: 3 (0x2)
        Serial Number: 1 (0x1)
        Signature Algorithm: sha256WithRSAEncryption
        Issuer: ST=ShangHai, C=CN, O=QUALVISION TECHNOLOGY CO.,LTD
        Validity
            Not Before: Dec 11 17:02:16 2017 GMT
            Not After : Dec  6 17:02:16 2037 GMT
        Subject: ST=ShangHai, C=CN, O=QUALVISION TECHNOLOGY CO.,LTD
        Subject Public Key Info:
            Public Key Algorithm: rsaEncryption
            RSA Public Key: (2048 bit)
                Modulus (2048 bit):
                    00:f4:d3:79:94:4e:f8:30:72:7a:83:45:16:47:91:
                    3a:f8:e5:2e:33:6e:6d:b7:90:7c:bf:48:67:a1:a4:
                    c9:ff:b8:91:30:d2:73:33:31:d8:d5:93:3c:43:4b:
                    e2:96:c7:c6:fe:f1:57:a4:a4:30:21:21:09:28:2f:
                    e2:d7:c5:db:a5:bf:b0:fc:ae:17:7b:b2:4e:3e:81:
                    36:46:84:0e:7c:6e:44:24:32:f9:47:1d:0e:78:9b:
                    67:43:b9:b6:33:5d:9b:6b:ab:5a:da:c0:66:a3:21:
                    e4:70:ca:b7:b9:99:71:a0:cb:f9:09:ef:f9:d5:60:
                    c3:ec:c6:43:c6:07:98:81:7a:b6:23:1a:13:e5:49:
                    b7:59:e7:5a:aa:6b:60:ac:f9:d0:bb:df:a2:ac:6b:
                    46:9f:4c:fd:e7:53:31:53:3f:44:25:fd:cf:87:44:
                    9a:58:0f:68:e6:0d:93:be:cd:36:58:a4:3a:8d:30:
                    6f:84:25:40:27:61:d0:82:8c:0f:28:73:ba:9f:f1:
                    01:db:c4:0b:c4:27:4c:4e:3c:d1:e8:7c:e5:cc:e3:
                    0e:66:af:a7:72:e0:5e:ab:59:95:cf:db:14:ab:d6:
                    19:63:0c:26:e4:e4:22:43:f4:34:f7:99:9b:d8:2e:
                    9f:f5:7b:9f:e7:64:d9:d1:37:46:8c:51:2a:82:a8:
                    fd:d7
                Exponent: 65537 (0x10001)
        X509v3 extensions:
            X509v3 Basic Constraints: 
                CA:TRUE
    Signature Algorithm: sha256WithRSAEncryption
        08:e8:28:f3:cd:b4:2a:77:c1:2b:d9:36:75:32:81:f6:fe:26:
        12:43:02:9f:71:81:dc:b5:fb:52:37:94:f6:8e:4e:89:35:9a:
        e7:76:26:87:4f:37:34:1f:d9:3d:85:d0:8d:b7:58:4d:b5:a3:
        fd:6a:e5:bc:85:a1:2f:e8:ef:b7:a7:8b:fb:75:39:a1:2f:51:
        96:9a:83:c5:03:4a:f6:0f:ef:23:be:58:78:22:bd:74:38:64:
        96:1e:a6:0b:b8:a0:e4:ec:0f:24:ee:ec:38:e9:bb:3a:25:2e:
        c2:be:13:7f:60:9f:35:46:54:82:aa:e7:85:aa:cf:ac:57:5d:
        c7:db:19:fd:c5:5d:41:fb:36:ab:53:ce:c8:50:fd:52:8e:6b:
        43:b1:b7:bd:ef:bc:ea:c4:5c:44:db:35:2d:82:34:95:87:8d:
        ff:41:b1:92:4d:96:40:45:cb:96:9b:56:d4:78:7b:29:89:c2:
        42:95:8e:b7:fd:15:2e:0f:ef:8a:e4:3f:54:29:cc:b0:a0:e6:
        8d:c2:b0:4b:fc:5e:2e:11:9a:f8:4f:80:42:c3:86:4a:df:21:
        d9:f5:94:80:e5:4e:05:85:12:84:0e:19:cb:bd:68:94:ba:42:
        c6:60:58:c5:1b:27:c5:13:bf:a0:e2:95:93:7c:b5:d3:71:b2:
        2c:cb:cc:3a
-----BEGIN CERTIFICATE-----
MIIDGzCCAgOgAwIBAgIBATANBgkqhkiG9w0BAQsFADBIMREwDwYDVQQIEwhTaGFu
Z0hhaTELMAkGA1UEBhMCQ04xJjAkBgNVBAoTHVFVQUxWSVNJT04gVEVDSE5PTE9H
WSBDTy4sTFREMB4XDTE3MTIxMTE3MDIxNloXDTM3MTIwNjE3MDIxNlowSDERMA8G
A1UECBMIU2hhbmdIYWkxCzAJBgNVBAYTAkNOMSYwJAYDVQQKEx1RVUFMVklTSU9O
IFRFQ0hOT0xPR1kgQ08uLExURDCCASIwDQYJKoZIhvcNAQEBBQADggEPADCCAQoC
ggEBAPTTeZRO+DByeoNFFkeROvjlLjNubbeQfL9IZ6Gkyf+4kTDSczMx2NWTPENL
4pbHxv7xV6SkMCEhCSgv4tfF26W/sPyuF3uyTj6BNkaEDnxuRCQy+UcdDnibZ0O5
tjNdm2urWtrAZqMh5HDKt7mZcaDL+Qnv+dVgw+zGQ8YHmIF6tiMaE+VJt1nnWqpr
YKz50LvfoqxrRp9M/edTMVM/RCX9z4dEmlgPaOYNk77NNlikOo0wb4QlQCdh0IKM
Dyhzup/xAdvEC8QnTE480eh85czjDmavp3LgXqtZlc/bFKvWGWMMJuTkIkP0NPeZ
m9gun/V7n+dk2dE3RoxRKoKo/dcCAwEAAaMQMA4wDAYDVR0TBAUwAwEB/zANBgkq
hkiG9w0BAQsFAAOCAQEACOgo8820KnfBK9k2dTKB9v4mEkMCn3GB3LX7UjeU9o5O
iTWa53Ymh083NB/ZPYXQjbdYTbWj/WrlvIWhL+jvt6eL+3U5oS9RlpqDxQNK9g/v
I75YeCK9dDhklh6mC7ig5OwPJO7sOOm7OiUuwr4Tf2CfNUZUgqrnharPrFddx9sZ
/cVdQfs2q1POyFD9Uo5rQ7G3ve+86sRcRNs1LYI0lYeN/0Gxkk2WQEXLlptW1Hh7
KYnCQpWOt/0VLg/viuQ/VCnMsKDmjcKwS/xeLhGa+E+AQsOGSt8h2fWUgOVOBYUS
hA4Zy71olLpCxmBYxRsnxRO/oOKVk3y103GyLMvMOg==
-----END CERTIFICATE-----
