Certificate:
    Data:
        Version: 3 (0x2)
        Serial Number: 3 (0x3)
        Signature Algorithm: sha256WithRSAEncryption
        Issuer: ST=ShangHai, C=CN, O=QUALVISION TECHNOLOGY CO.,LTD
        Validity
            Not Before: Dec 11 17:06:00 2017 GMT
            Not After : Dec  6 17:06:00 2037 GMT
        Subject: ST=ShangHai, C=CN, O=QUALVISION
        Subject Public Key Info:
            Public Key Algorithm: rsaEncryption
            RSA Public Key: (2048 bit)
                Modulus (2048 bit):
                    00:bd:13:97:ff:6c:35:e2:ac:d4:29:87:a0:1c:48:
                    b3:e9:35:bb:65:bf:40:77:26:7a:d4:53:fd:d4:d5:
                    e9:53:33:cd:44:27:b1:79:e5:7d:96:ed:0c:99:33:
                    c0:d0:60:47:ed:0f:a2:38:62:c6:9c:c1:02:88:b3:
                    bd:cd:bb:1f:d0:45:91:54:1f:45:14:f6:16:c6:5d:
                    32:cd:77:bd:d3:9f:e9:af:d5:dd:bd:95:82:b4:bf:
                    49:b0:17:6d:90:02:f1:c4:16:61:ae:ff:fa:9b:2d:
                    86:52:37:bf:62:85:ad:cb:c5:79:d7:8a:a2:29:bf:
                    63:98:68:46:42:ec:1b:a3:aa:80:7a:ed:58:9e:b2:
                    a2:bd:8f:97:13:57:85:31:40:91:4b:b6:cc:03:b9:
                    2b:c3:22:eb:69:7d:f4:ad:2c:23:8c:df:d8:23:b2:
                    4f:51:42:57:82:7a:8a:e7:1c:61:81:16:99:a3:26:
                    19:8a:6b:3b:01:dc:37:ac:c7:3e:61:d8:7b:d9:33:
                    5e:91:c9:d5:b1:eb:fc:07:75:ab:40:60:aa:f4:54:
                    1a:ee:f4:1d:61:e4:a1:b4:9c:85:74:13:85:70:77:
                    ab:0f:67:b7:9c:26:4d:1c:9f:82:33:56:1d:6e:0e:
                    dd:b3:09:d3:4c:11:e8:38:78:cd:26:99:39:ea:93:
                    2d:d3
                Exponent: 65537 (0x10001)
        X509v3 extensions:
            X509v3 Basic Constraints: 
                CA:FALSE
    Signature Algorithm: sha256WithRSAEncryption
        a2:bc:7a:44:13:45:2f:ca:9b:1b:4a:ba:7a:24:70:55:4e:59:
        07:8b:b2:12:aa:02:14:55:c0:8f:1d:c4:41:fa:8e:22:d0:cf:
        a5:1f:5a:7e:cc:b3:19:1a:0c:72:e3:83:94:6c:a0:7c:64:7d:
        4e:7b:b8:56:cc:bb:06:69:42:c0:09:33:fe:9a:7e:5c:3a:b8:
        1e:c3:d6:04:f7:e2:79:45:4f:05:a5:c1:b3:62:9a:09:cc:7c:
        ee:20:6c:57:6e:93:04:37:1f:3b:91:06:ed:4d:7d:cf:2a:df:
        61:46:eb:f8:99:fd:ff:78:3b:3b:2c:88:ee:44:d2:2b:be:06:
        1e:53:96:06:b2:55:ec:47:f4:60:14:e2:ac:f6:1d:db:14:62:
        08:87:fa:82:d6:7c:59:c7:c8:6b:0e:ba:56:ec:07:fe:12:1d:
        61:ef:38:66:bb:e2:96:22:d9:d9:07:59:24:6d:7c:35:9e:bc:
        da:10:f6:4c:1a:39:dc:4a:14:00:89:ae:1e:6b:5e:58:fa:de:
        b0:99:c0:4a:a0:00:fe:07:17:0f:76:db:35:42:7d:f5:7d:8a:
        cf:ff:d7:62:4e:11:73:04:f4:86:f4:34:c4:c4:7d:25:50:d2:
        fe:f5:cb:98:65:d3:de:77:3f:48:5c:c9:46:60:32:17:26:b2:
        09:84:a7:b2
-----BEGIN CERTIFICATE-----
MIIDBTCCAe2gAwIBAgIBAzANBgkqhkiG9w0BAQsFADBIMREwDwYDVQQIEwhTaGFu
Z0hhaTELMAkGA1UEBhMCQ04xJjAkBgNVBAoTHVFVQUxWSVNJT04gVEVDSE5PTE9H
WSBDTy4sTFREMB4XDTE3MTIxMTE3MDYwMFoXDTM3MTIwNjE3MDYwMFowNTERMA8G
A1UECBMIU2hhbmdIYWkxCzAJBgNVBAYTAkNOMRMwEQYDVQQKEwpRVUFMVklTSU9O
MIIBIjANBgkqhkiG9w0BAQEFAAOCAQ8AMIIBCgKCAQEAvROX/2w14qzUKYegHEiz
6TW7Zb9AdyZ61FP91NXpUzPNRCexeeV9lu0MmTPA0GBH7Q+iOGLGnMECiLO9zbsf
0EWRVB9FFPYWxl0yzXe905/pr9XdvZWCtL9JsBdtkALxxBZhrv/6my2GUje/YoWt
y8V514qiKb9jmGhGQuwbo6qAeu1YnrKivY+XE1eFMUCRS7bMA7krwyLraX30rSwj
jN/YI7JPUUJXgnqK5xxhgRaZoyYZims7Adw3rMc+Ydh72TNekcnVsev8B3WrQGCq
9FQa7vQdYeShtJyFdBOFcHerD2e3nCZNHJ+CM1Ydbg7dswnTTBHoOHjNJpk56pMt
0wIDAQABow0wCzAJBgNVHRMEAjAAMA0GCSqGSIb3DQEBCwUAA4IBAQCivHpEE0Uv
ypsbSrp6JHBVTlkHi7ISqgIUVcCPHcRB+o4i0M+lH1p+zLMZGgxy44OUbKB8ZH1O
e7hWzLsGaULACTP+mn5cOrgew9YE9+J5RU8FpcGzYpoJzHzuIGxXbpMENx87kQbt
TX3PKt9hRuv4mf3/eDs7LIjuRNIrvgYeU5YGslXsR/RgFOKs9h3bFGIIh/qC1nxZ
x8hrDrpW7Af+Eh1h7zhmu+KWItnZB1kkbXw1nrzaEPZMGjncShQAia4ea15Y+t6w
mcBKoAD+BxcPdts1Qn31fYrP/9diThFzBPSG9DTExH0lUNL+9cuYZdPedz9IXMlG
YDIXJrIJhKey
-----END CERTIFICATE-----
